target datalayout = "e-m:e-p270:32:32-p271:32:32-p272:64:64-i64:64-i128:128-f80:128-n8:16:32:64-S128"
target triple = "x86_64-pc-linux-gnu"

%struct.__va_list_tag = type { i32, i32, ptr, ptr }

@_ZL19g_assertion_context = internal global ptr null, align 8
@_ZL18g_asserting_thread = internal global i64 0, align 8
@_ZN6Thread12_thr_currentE = external thread_local global ptr, align 8

; Function Attrs: mustprogress nounwind uwtable
define linkonce_odr hidden noundef ptr @_ZN6Thread15current_or_nullEv() #1 comdat align 2 {
  %1 = call align 8 ptr @llvm.threadlocal.address.p0(ptr align 8 @_ZN6Thread12_thr_currentE)
  %2 = load ptr, ptr %1, align 8
  ret ptr %2
}

; Function Attrs: mustprogress noreturn nounwind uwtable
define hidden void @_Z15report_vm_errorPKciS0_S0_z(ptr noundef %0, i32 noundef %1, ptr noundef %2, ptr noundef %3, ...) #2 {
  %5 = alloca ptr, align 8
  %6 = alloca i32, align 4
  %7 = alloca ptr, align 8
  %8 = alloca ptr, align 8
  %9 = alloca [1 x %struct.__va_list_tag], align 16
  %10 = alloca ptr, align 8
  store ptr %0, ptr %5, align 8
  store i32 %1, ptr %6, align 4
  store ptr %2, ptr %7, align 8
  store ptr %3, ptr %8, align 8
  %11 = getelementptr inbounds [1 x %struct.__va_list_tag], ptr %9, i64 0, i64 0
  call void @llvm.va_start.p0(ptr %11)
  store ptr null, ptr %10, align 8
  %12 = load ptr, ptr @_ZL19g_assertion_context, align 8
  %13 = icmp ne ptr %12, null
  br i1 %13, label %14, label %20

14:                                               ; preds = %4
  %15 = call noundef i64 @_ZN2os17current_thread_idEv()
  %16 = load i64, ptr @_ZL18g_asserting_thread, align 8
  %17 = icmp eq i64 %15, %16
  br i1 %17, label %18, label %20

18:                                               ; preds = %14
  %19 = load ptr, ptr @_ZL19g_assertion_context, align 8
  store ptr %19, ptr %10, align 8
  br label %20

20:                                               ; preds = %18, %14, %4
  %21 = load ptr, ptr %7, align 8
  %22 = load ptr, ptr %8, align 8
  %23 = getelementptr inbounds [1 x %struct.__va_list_tag], ptr %9, i64 0, i64 0
  call void @_ZL25print_error_for_unit_testPKcS0_P13__va_list_tag(ptr noundef %21, ptr noundef %22, ptr noundef %23)
  %24 = call noundef ptr @_ZN6Thread15current_or_nullEv()
  %25 = load ptr, ptr %10, align 8
  %26 = load ptr, ptr %5, align 8
  %27 = load i32, ptr %6, align 4
  %28 = load ptr, ptr %7, align 8
  %29 = load ptr, ptr %8, align 8
  %30 = getelementptr inbounds [1 x %struct.__va_list_tag], ptr %9, i64 0, i64 0
  call void @_ZN7VMError14report_and_dieEP6ThreadPvPKciS4_S4_P13__va_list_tag(ptr noundef %24, ptr noundef %25, ptr noundef %26, i32 noundef %27, ptr noundef %28, ptr noundef %29, ptr noundef %30) #10
  unreachable
}