; Function Attrs: mustprogress noreturn nounwind uwtable
define hidden void @_Z15report_vm_errorPKciS0_S0_z(ptr noundef %0, i32 noundef %1, ptr noundef %2, ptr noundef %3, ...) local_unnamed_addr #2 {
  %5 = alloca [1 x %struct.__va_list_tag], align 16
  call void @llvm.va_start.p0(ptr nonnull %5)
  %6 = load ptr, ptr @_ZL19g_assertion_context, align 8
  %.not = icmp eq ptr %6, null
  br i1 %.not, label %12, label %7

7:                                                ; preds = %4
  %8 = call noundef i64 @_ZN2os17current_thread_idEv() #16
  %9 = load i64, ptr @_ZL18g_asserting_thread, align 8
  %10 = icmp eq i64 %8, %9
  %11 = load ptr, ptr @_ZL19g_assertion_context, align 8
  %spec.select = select i1 %10, ptr %11, ptr null
  br label %12

12:                                               ; preds = %7, %4
  %.0 = phi ptr [ null, %4 ], [ %spec.select, %7 ]
  call fastcc void @_ZL25print_error_for_unit_testPKcS0_P13__va_list_tag(ptr noundef %2, ptr noundef %3, ptr noundef nonnull %5)
  %13 = call align 8 ptr @llvm.threadlocal.address.p0(ptr align 8 @_ZN6Thread12_thr_currentE)
  %14 = load ptr, ptr %13, align 8
  call void @_ZN7VMError14report_and_dieEP6ThreadPvPKciS4_S4_P13__va_list_tag(ptr noundef %14, ptr noundef %.0, ptr noundef %0, i32 noundef %1, ptr noundef %2, ptr noundef %3, ptr noundef nonnull %5) #17
  unreachable
}